; ModuleID = '50/1560.c'
source_filename = "50/1560.c"
target datalayout = "e-m:e-p270:32:32-p271:32:32-p272:64:64-i64:64-f80:128-n8:16:32:64-S128"
target triple = "x86_64-pc-linux-gnu"

@.str = private unnamed_addr constant [3 x i8] c"%d\00", align 1
@.str.1 = private unnamed_addr constant [3 x i8] c"1\0A\00", align 1
@.str.2 = private unnamed_addr constant [3 x i8] c"2\0A\00", align 1
@.str.3 = private unnamed_addr constant [3 x i8] c"3\0A\00", align 1
@.str.4 = private unnamed_addr constant [3 x i8] c"4\0A\00", align 1
@.str.5 = private unnamed_addr constant [3 x i8] c"5\0A\00", align 1
@.str.6 = private unnamed_addr constant [3 x i8] c"6\0A\00", align 1
@.str.7 = private unnamed_addr constant [3 x i8] c"7\0A\00", align 1
@.str.8 = private unnamed_addr constant [3 x i8] c"8\0A\00", align 1
@.str.9 = private unnamed_addr constant [3 x i8] c"9\0A\00", align 1
@.str.10 = private unnamed_addr constant [4 x i8] c"10\0A\00", align 1
@.str.11 = private unnamed_addr constant [4 x i8] c"11\0A\00", align 1
@.str.12 = private unnamed_addr constant [4 x i8] c"12\0A\00", align 1

; Function Attrs: noinline nounwind uwtable
define dso_local i32 @main() #0 {
  %1 = alloca i32, align 4
  %2 = alloca i32, align 4
  %3 = alloca i32, align 4
  %4 = alloca [365 x i32], align 16
  %5 = alloca i32, align 4
  store i32 0, i32* %1, align 4
  store i32 0, i32* %5, align 4
  %6 = call i32 (i8*, ...) @__isoc99_scanf(i8* getelementptr inbounds ([3 x i8], [3 x i8]* @.str, i64 0, i64 0), i32* %2)
  %7 = load i32, i32* %2, align 4
  %8 = getelementptr inbounds [365 x i32], [365 x i32]* %4, i64 0, i64 0
  store i32 %7, i32* %8, align 16
  store i32 0, i32* %3, align 4
  br label %9

9:                                                ; preds = %32, %0
  %10 = load i32, i32* %3, align 4
  %11 = icmp slt i32 %10, 364
  br i1 %11, label %12, label %35

12:                                               ; preds = %9
  %13 = load i32, i32* %3, align 4
  %14 = sext i32 %13 to i64
  %15 = getelementptr inbounds [365 x i32], [365 x i32]* %4, i64 0, i64 %14
  %16 = load i32, i32* %15, align 4
  %17 = icmp eq i32 %16, 7
  br i1 %17, label %18, label %22

18:                                               ; preds = %12
  %19 = load i32, i32* %3, align 4
  %20 = sext i32 %19 to i64
  %21 = getelementptr inbounds [365 x i32], [365 x i32]* %4, i64 0, i64 %20
  store i32 0, i32* %21, align 4
  br label %22

22:                                               ; preds = %18, %12
  %23 = load i32, i32* %3, align 4
  %24 = sext i32 %23 to i64
  %25 = getelementptr inbounds [365 x i32], [365 x i32]* %4, i64 0, i64 %24
  %26 = load i32, i32* %25, align 4
  %27 = add nsw i32 %26, 1
  %28 = load i32, i32* %3, align 4
  %29 = add nsw i32 %28, 1
  %30 = sext i32 %29 to i64
  %31 = getelementptr inbounds [365 x i32], [365 x i32]* %4, i64 0, i64 %30
  store i32 %27, i32* %31, align 4
  br label %32

32:                                               ; preds = %22
  %33 = load i32, i32* %3, align 4
  %34 = add nsw i32 %33, 1
  store i32 %34, i32* %3, align 4
  br label %9

35:                                               ; preds = %9
  store i32 0, i32* %3, align 4
  br label %36

36:                                               ; preds = %131, %35
  %37 = load i32, i32* %3, align 4
  %38 = icmp slt i32 %37, 365
  br i1 %38, label %39, label %134

39:                                               ; preds = %36
  %40 = load i32, i32* %3, align 4
  %41 = sext i32 %40 to i64
  %42 = getelementptr inbounds [365 x i32], [365 x i32]* %4, i64 0, i64 %41
  %43 = load i32, i32* %42, align 4
  %44 = icmp eq i32 %43, 5
  br i1 %44, label %45, label %130

45:                                               ; preds = %39
  %46 = load i32, i32* %3, align 4
  %47 = icmp eq i32 %46, 12
  br i1 %47, label %48, label %52

48:                                               ; preds = %45
  %49 = call i32 (i8*, ...) @printf(i8* getelementptr inbounds ([3 x i8], [3 x i8]* @.str.1, i64 0, i64 0))
  %50 = load i32, i32* %5, align 4
  %51 = add nsw i32 %50, 1
  store i32 %51, i32* %5, align 4
  br label %52

52:                                               ; preds = %48, %45
  %53 = load i32, i32* %3, align 4
  %54 = icmp eq i32 %53, 43
  br i1 %54, label %55, label %59

55:                                               ; preds = %52
  %56 = call i32 (i8*, ...) @printf(i8* getelementptr inbounds ([3 x i8], [3 x i8]* @.str.2, i64 0, i64 0))
  %57 = load i32, i32* %5, align 4
  %58 = add nsw i32 %57, 1
  store i32 %58, i32* %5, align 4
  br label %59

59:                                               ; preds = %55, %52
  %60 = load i32, i32* %3, align 4
  %61 = icmp eq i32 %60, 71
  br i1 %61, label %62, label %66

62:                                               ; preds = %59
  %63 = call i32 (i8*, ...) @printf(i8* getelementptr inbounds ([3 x i8], [3 x i8]* @.str.3, i64 0, i64 0))
  %64 = load i32, i32* %5, align 4
  %65 = add nsw i32 %64, 1
  store i32 %65, i32* %5, align 4
  br label %66

66:                                               ; preds = %62, %59
  %67 = load i32, i32* %3, align 4
  %68 = icmp eq i32 %67, 102
  br i1 %68, label %69, label %73

69:                                               ; preds = %66
  %70 = call i32 (i8*, ...) @printf(i8* getelementptr inbounds ([3 x i8], [3 x i8]* @.str.4, i64 0, i64 0))
  %71 = load i32, i32* %5, align 4
  %72 = add nsw i32 %71, 1
  store i32 %72, i32* %5, align 4
  br label %73

73:                                               ; preds = %69, %66
  %74 = load i32, i32* %3, align 4
  %75 = icmp eq i32 %74, 132
  br i1 %75, label %76, label %80

76:                                               ; preds = %73
  %77 = call i32 (i8*, ...) @printf(i8* getelementptr inbounds ([3 x i8], [3 x i8]* @.str.5, i64 0, i64 0))
  %78 = load i32, i32* %5, align 4
  %79 = add nsw i32 %78, 1
  store i32 %79, i32* %5, align 4
  br label %80

80:                                               ; preds = %76, %73
  %81 = load i32, i32* %3, align 4
  %82 = icmp eq i32 %81, 163
  br i1 %82, label %83, label %87

83:                                               ; preds = %80
  %84 = call i32 (i8*, ...) @printf(i8* getelementptr inbounds ([3 x i8], [3 x i8]* @.str.6, i64 0, i64 0))
  %85 = load i32, i32* %5, align 4
  %86 = add nsw i32 %85, 1
  store i32 %86, i32* %5, align 4
  br label %87

87:                                               ; preds = %83, %80
  %88 = load i32, i32* %3, align 4
  %89 = icmp eq i32 %88, 193
  br i1 %89, label %90, label %94

90:                                               ; preds = %87
  %91 = call i32 (i8*, ...) @printf(i8* getelementptr inbounds ([3 x i8], [3 x i8]* @.str.7, i64 0, i64 0))
  %92 = load i32, i32* %5, align 4
  %93 = add nsw i32 %92, 1
  store i32 %93, i32* %5, align 4
  br label %94

94:                                               ; preds = %90, %87
  %95 = load i32, i32* %3, align 4
  %96 = icmp eq i32 %95, 224
  br i1 %96, label %97, label %101

97:                                               ; preds = %94
  %98 = call i32 (i8*, ...) @printf(i8* getelementptr inbounds ([3 x i8], [3 x i8]* @.str.8, i64 0, i64 0))
  %99 = load i32, i32* %5, align 4
  %100 = add nsw i32 %99, 1
  store i32 %100, i32* %5, align 4
  br label %101

101:                                              ; preds = %97, %94
  %102 = load i32, i32* %3, align 4
  %103 = icmp eq i32 %102, 255
  br i1 %103, label %104, label %108

104:                                              ; preds = %101
  %105 = call i32 (i8*, ...) @printf(i8* getelementptr inbounds ([3 x i8], [3 x i8]* @.str.9, i64 0, i64 0))
  %106 = load i32, i32* %5, align 4
  %107 = add nsw i32 %106, 1
  store i32 %107, i32* %5, align 4
  br label %108

108:                                              ; preds = %104, %101
  %109 = load i32, i32* %3, align 4
  %110 = icmp eq i32 %109, 285
  br i1 %110, label %111, label %115

111:                                              ; preds = %108
  %112 = call i32 (i8*, ...) @printf(i8* getelementptr inbounds ([4 x i8], [4 x i8]* @.str.10, i64 0, i64 0))
  %113 = load i32, i32* %5, align 4
  %114 = add nsw i32 %113, 1
  store i32 %114, i32* %5, align 4
  br label %115

115:                                              ; preds = %111, %108
  %116 = load i32, i32* %3, align 4
  %117 = icmp eq i32 %116, 316
  br i1 %117, label %118, label %122

118:                                              ; preds = %115
  %119 = call i32 (i8*, ...) @printf(i8* getelementptr inbounds ([4 x i8], [4 x i8]* @.str.11, i64 0, i64 0))
  %120 = load i32, i32* %5, align 4
  %121 = add nsw i32 %120, 1
  store i32 %121, i32* %5, align 4
  br label %122

122:                                              ; preds = %118, %115
  %123 = load i32, i32* %3, align 4
  %124 = icmp eq i32 %123, 346
  br i1 %124, label %125, label %129

125:                                              ; preds = %122
  %126 = call i32 (i8*, ...) @printf(i8* getelementptr inbounds ([4 x i8], [4 x i8]* @.str.12, i64 0, i64 0))
  %127 = load i32, i32* %5, align 4
  %128 = add nsw i32 %127, 1
  store i32 %128, i32* %5, align 4
  br label %129

129:                                              ; preds = %125, %122
  br label %130

130:                                              ; preds = %129, %39
  br label %131

131:                                              ; preds = %130
  %132 = load i32, i32* %3, align 4
  %133 = add nsw i32 %132, 1
  store i32 %133, i32* %3, align 4
  br label %36

134:                                              ; preds = %36
  ret i32 0
}

declare dso_local i32 @__isoc99_scanf(i8*, ...) #1

declare dso_local i32 @printf(i8*, ...) #1


!llvm.module.flags = !{!0}
!llvm.ident = !{!1}

!0 = !{i32 1, !"wchar_size", i32 4}
!1 = !{!"clang version 10.0.0-4ubuntu1 "}
