; ModuleID = 'source-C-CXX/49/1560.c'
source_filename = "source-C-CXX/49/1560.c"
target datalayout = "e-m:e-p270:32:32-p271:32:32-p272:64:64-i64:64-f80:128-n8:16:32:64-S128"
target triple = "x86_64-pc-linux-gnu"

@.str = private unnamed_addr constant [3 x i8] c"%d\00", align 1
@str = private unnamed_addr constant [3 x i8] c"12\00", align 1
@str.13 = private unnamed_addr constant [3 x i8] c"11\00", align 1
@str.14 = private unnamed_addr constant [3 x i8] c"10\00", align 1
@str.15 = private unnamed_addr constant [2 x i8] c"9\00", align 1
@str.16 = private unnamed_addr constant [2 x i8] c"8\00", align 1
@str.17 = private unnamed_addr constant [2 x i8] c"7\00", align 1
@str.18 = private unnamed_addr constant [2 x i8] c"6\00", align 1
@str.19 = private unnamed_addr constant [2 x i8] c"5\00", align 1
@str.20 = private unnamed_addr constant [2 x i8] c"4\00", align 1
@str.21 = private unnamed_addr constant [2 x i8] c"3\00", align 1
@str.22 = private unnamed_addr constant [2 x i8] c"2\00", align 1
@str.23 = private unnamed_addr constant [2 x i8] c"1\00", align 1

; Function Attrs: nofree nounwind sspstrong uwtable
define dso_local i32 @main() local_unnamed_addr #0 {
  %1 = alloca i32, align 4
  %2 = alloca [365 x i32], align 16
  %3 = bitcast i32* %1 to i8*
  call void @llvm.lifetime.start.p0i8(i64 4, i8* nonnull %3) #4
  %4 = bitcast [365 x i32]* %2 to i8*
  call void @llvm.lifetime.start.p0i8(i64 1460, i8* nonnull %4) #4
  %5 = call i32 (i8*, ...) @__isoc99_scanf(i8* getelementptr inbounds ([3 x i8], [3 x i8]* @.str, i64 0, i64 0), i32* nonnull %1)
  %6 = load i32, i32* %1, align 4, !tbaa !5
  %7 = getelementptr inbounds [365 x i32], [365 x i32]* %2, i64 0, i64 0
  store i32 %6, i32* %7, align 16, !tbaa !5
  br label %8

8:                                                ; preds = %47, %0
  %9 = phi i32 [ %6, %0 ], [ %49, %47 ]
  %10 = phi i64 [ 0, %0 ], [ %50, %47 ]
  %11 = icmp eq i32 %9, 7
  br i1 %11, label %12, label %14

12:                                               ; preds = %8
  %13 = getelementptr inbounds [365 x i32], [365 x i32]* %2, i64 0, i64 %10
  store i32 0, i32* %13, align 8, !tbaa !5
  br label %14

14:                                               ; preds = %12, %8
  %15 = phi i32 [ 0, %12 ], [ %9, %8 ]
  %16 = add nsw i32 %15, 1
  %17 = or i64 %10, 1
  %18 = getelementptr inbounds [365 x i32], [365 x i32]* %2, i64 0, i64 %17
  store i32 %16, i32* %18, align 4, !tbaa !5
  %19 = icmp eq i32 %16, 7
  br i1 %19, label %45, label %47

20:                                               ; preds = %47, %41
  %21 = phi i64 [ %42, %41 ], [ 0, %47 ]
  %22 = getelementptr inbounds [365 x i32], [365 x i32]* %2, i64 0, i64 %21
  %23 = load i32, i32* %22, align 4, !tbaa !5
  %24 = icmp eq i32 %23, 5
  br i1 %24, label %25, label %41

25:                                               ; preds = %20
  %26 = trunc i64 %21 to i32
  switch i32 %26, label %41 [
    i32 12, label %38
    i32 43, label %27
    i32 71, label %28
    i32 102, label %29
    i32 132, label %30
    i32 163, label %31
    i32 193, label %32
    i32 224, label %33
    i32 255, label %34
    i32 285, label %35
    i32 316, label %36
    i32 346, label %37
  ]

27:                                               ; preds = %25
  br label %38

28:                                               ; preds = %25
  br label %38

29:                                               ; preds = %25
  br label %38

30:                                               ; preds = %25
  br label %38

31:                                               ; preds = %25
  br label %38

32:                                               ; preds = %25
  br label %38

33:                                               ; preds = %25
  br label %38

34:                                               ; preds = %25
  br label %38

35:                                               ; preds = %25
  br label %38

36:                                               ; preds = %25
  br label %38

37:                                               ; preds = %25
  br label %38

38:                                               ; preds = %25, %37, %36, %35, %34, %33, %32, %31, %30, %29, %28, %27
  %39 = phi i8* [ getelementptr inbounds ([2 x i8], [2 x i8]* @str.22, i64 0, i64 0), %27 ], [ getelementptr inbounds ([2 x i8], [2 x i8]* @str.21, i64 0, i64 0), %28 ], [ getelementptr inbounds ([2 x i8], [2 x i8]* @str.20, i64 0, i64 0), %29 ], [ getelementptr inbounds ([2 x i8], [2 x i8]* @str.19, i64 0, i64 0), %30 ], [ getelementptr inbounds ([2 x i8], [2 x i8]* @str.18, i64 0, i64 0), %31 ], [ getelementptr inbounds ([2 x i8], [2 x i8]* @str.17, i64 0, i64 0), %32 ], [ getelementptr inbounds ([2 x i8], [2 x i8]* @str.16, i64 0, i64 0), %33 ], [ getelementptr inbounds ([2 x i8], [2 x i8]* @str.15, i64 0, i64 0), %34 ], [ getelementptr inbounds ([3 x i8], [3 x i8]* @str.14, i64 0, i64 0), %35 ], [ getelementptr inbounds ([3 x i8], [3 x i8]* @str.13, i64 0, i64 0), %36 ], [ getelementptr inbounds ([3 x i8], [3 x i8]* @str, i64 0, i64 0), %37 ], [ getelementptr inbounds ([2 x i8], [2 x i8]* @str.23, i64 0, i64 0), %25 ]
  %40 = call i32 @puts(i8* nonnull dereferenceable(1) %39)
  br label %41

41:                                               ; preds = %38, %25, %20
  %42 = add nuw nsw i64 %21, 1
  %43 = icmp eq i64 %42, 365
  br i1 %43, label %44, label %20, !llvm.loop !9

44:                                               ; preds = %41
  call void @llvm.lifetime.end.p0i8(i64 1460, i8* nonnull %4) #4
  call void @llvm.lifetime.end.p0i8(i64 4, i8* nonnull %3) #4
  ret i32 0

45:                                               ; preds = %14
  %46 = getelementptr inbounds [365 x i32], [365 x i32]* %2, i64 0, i64 %17
  store i32 0, i32* %46, align 4, !tbaa !5
  br label %47

47:                                               ; preds = %45, %14
  %48 = phi i32 [ 0, %45 ], [ %16, %14 ]
  %49 = add nsw i32 %48, 1
  %50 = add nuw nsw i64 %10, 2
  %51 = getelementptr inbounds [365 x i32], [365 x i32]* %2, i64 0, i64 %50
  store i32 %49, i32* %51, align 8, !tbaa !5
  %52 = icmp eq i64 %50, 364
  br i1 %52, label %20, label %8, !llvm.loop !11
}

; Function Attrs: argmemonly mustprogress nofree nosync nounwind willreturn
declare void @llvm.lifetime.start.p0i8(i64 immarg, i8* nocapture) #1

; Function Attrs: nofree nounwind
declare noundef i32 @__isoc99_scanf(i8* nocapture noundef readonly, ...) local_unnamed_addr #2

; Function Attrs: argmemonly mustprogress nofree nosync nounwind willreturn
declare void @llvm.lifetime.end.p0i8(i64 immarg, i8* nocapture) #1

; Function Attrs: nofree nounwind
declare noundef i32 @puts(i8* nocapture noundef readonly) local_unnamed_addr #3


!llvm.module.flags = !{!0, !1, !2, !3}
!llvm.ident = !{!4}

!0 = !{i32 1, !"wchar_size", i32 4}
!1 = !{i32 7, !"PIC Level", i32 2}
!2 = !{i32 7, !"PIE Level", i32 2}
!3 = !{i32 7, !"uwtable", i32 1}
!4 = !{!"clang version 13.0.0"}
!5 = !{!6, !6, i64 0}
!6 = !{!"int", !7, i64 0}
!7 = !{!"omnipotent char", !8, i64 0}
!8 = !{!"Simple C/C++ TBAA"}
!9 = distinct !{!9, !10}
!10 = !{!"llvm.loop.mustprogress"}
!11 = distinct !{!11, !10}
